; ModuleID = '24/1935.c'
source_filename = "24/1935.c"
target datalayout = "e-m:e-p270:32:32-p271:32:32-p272:64:64-i64:64-f80:128-n8:16:32:64-S128"
target triple = "x86_64-pc-linux-gnu"

@.str = private unnamed_addr constant [7 x i8] c"%s\0A%s\0A\00", align 1

; Function Attrs: noinline nounwind uwtable
define dso_local i32 @main() #0 {
  %1 = alloca i32, align 4
  %2 = alloca [100000 x i8], align 16
  %3 = alloca i32, align 4
  %4 = alloca [40 x i8], align 16
  %5 = alloca [40 x i8], align 16
  %6 = alloca [40 x i8], align 16
  %7 = alloca i32, align 4
  %8 = alloca i32, align 4
  %9 = alloca i32, align 4
  %10 = alloca i32, align 4
  store i32 0, i32* %1, align 4
  %11 = getelementptr inbounds [100000 x i8], [100000 x i8]* %2, i64 0, i64 0
  %12 = call i32 (i8*, ...) bitcast (i32 (...)* @gets to i32 (i8*, ...)*)(i8* %11)
  %13 = getelementptr inbounds [100000 x i8], [100000 x i8]* %2, i64 0, i64 0
  %14 = call i64 @strlen(i8* %13) #4
  %15 = trunc i64 %14 to i32
  store i32 %15, i32* %3, align 4
  store i32 0, i32* %8, align 4
  store i32 30, i32* %9, align 4
  store i32 0, i32* %10, align 4
  store i32 0, i32* %7, align 4
  br label %16

16:                                               ; preds = %89, %0
  %17 = load i32, i32* %7, align 4
  %18 = load i32, i32* %3, align 4
  %19 = icmp slt i32 %17, %18
  br i1 %19, label %20, label %92

20:                                               ; preds = %16
  %21 = load i32, i32* %7, align 4
  %22 = sext i32 %21 to i64
  %23 = getelementptr inbounds [100000 x i8], [100000 x i8]* %2, i64 0, i64 %22
  %24 = load i8, i8* %23, align 1
  %25 = sext i8 %24 to i32
  %26 = icmp ne i32 %25, 32
  br i1 %26, label %27, label %44

27:                                               ; preds = %20
  %28 = load i32, i32* %7, align 4
  %29 = sext i32 %28 to i64
  %30 = getelementptr inbounds [100000 x i8], [100000 x i8]* %2, i64 0, i64 %29
  %31 = load i8, i8* %30, align 1
  %32 = sext i8 %31 to i32
  %33 = icmp ne i32 %32, 44
  br i1 %33, label %34, label %44

34:                                               ; preds = %27
  %35 = load i32, i32* %7, align 4
  %36 = sext i32 %35 to i64
  %37 = getelementptr inbounds [100000 x i8], [100000 x i8]* %2, i64 0, i64 %36
  %38 = load i8, i8* %37, align 1
  %39 = load i32, i32* %8, align 4
  %40 = sext i32 %39 to i64
  %41 = getelementptr inbounds [40 x i8], [40 x i8]* %6, i64 0, i64 %40
  store i8 %38, i8* %41, align 1
  %42 = load i32, i32* %8, align 4
  %43 = add nsw i32 %42, 1
  store i32 %43, i32* %8, align 4
  br label %44

44:                                               ; preds = %34, %27, %20
  %45 = load i32, i32* %7, align 4
  %46 = sext i32 %45 to i64
  %47 = getelementptr inbounds [100000 x i8], [100000 x i8]* %2, i64 0, i64 %46
  %48 = load i8, i8* %47, align 1
  %49 = sext i8 %48 to i32
  %50 = icmp eq i32 %49, 32
  br i1 %50, label %63, label %51

51:                                               ; preds = %44
  %52 = load i32, i32* %7, align 4
  %53 = sext i32 %52 to i64
  %54 = getelementptr inbounds [100000 x i8], [100000 x i8]* %2, i64 0, i64 %53
  %55 = load i8, i8* %54, align 1
  %56 = sext i8 %55 to i32
  %57 = icmp eq i32 %56, 44
  br i1 %57, label %63, label %58

58:                                               ; preds = %51
  %59 = load i32, i32* %7, align 4
  %60 = load i32, i32* %3, align 4
  %61 = sub nsw i32 %60, 1
  %62 = icmp eq i32 %59, %61
  br i1 %62, label %63, label %88

63:                                               ; preds = %58, %51, %44
  %64 = load i32, i32* %8, align 4
  %65 = icmp ne i32 %64, 0
  br i1 %65, label %66, label %88

66:                                               ; preds = %63
  %67 = load i32, i32* %8, align 4
  %68 = sext i32 %67 to i64
  %69 = getelementptr inbounds [40 x i8], [40 x i8]* %6, i64 0, i64 %68
  store i8 0, i8* %69, align 1
  %70 = load i32, i32* %8, align 4
  %71 = load i32, i32* %10, align 4
  %72 = icmp sgt i32 %70, %71
  br i1 %72, label %73, label %78

73:                                               ; preds = %66
  %74 = getelementptr inbounds [40 x i8], [40 x i8]* %4, i64 0, i64 0
  %75 = getelementptr inbounds [40 x i8], [40 x i8]* %6, i64 0, i64 0
  %76 = call i8* @strcpy(i8* %74, i8* %75) #5
  %77 = load i32, i32* %8, align 4
  store i32 %77, i32* %10, align 4
  br label %78

78:                                               ; preds = %73, %66
  %79 = load i32, i32* %8, align 4
  %80 = load i32, i32* %9, align 4
  %81 = icmp slt i32 %79, %80
  br i1 %81, label %82, label %87

82:                                               ; preds = %78
  %83 = getelementptr inbounds [40 x i8], [40 x i8]* %5, i64 0, i64 0
  %84 = getelementptr inbounds [40 x i8], [40 x i8]* %6, i64 0, i64 0
  %85 = call i8* @strcpy(i8* %83, i8* %84) #5
  %86 = load i32, i32* %8, align 4
  store i32 %86, i32* %9, align 4
  br label %87

87:                                               ; preds = %82, %78
  store i32 0, i32* %8, align 4
  br label %88

88:                                               ; preds = %87, %63, %58
  br label %89

89:                                               ; preds = %88
  %90 = load i32, i32* %7, align 4
  %91 = add nsw i32 %90, 1
  store i32 %91, i32* %7, align 4
  br label %16

92:                                               ; preds = %16
  %93 = getelementptr inbounds [40 x i8], [40 x i8]* %4, i64 0, i64 0
  %94 = getelementptr inbounds [40 x i8], [40 x i8]* %5, i64 0, i64 0
  %95 = call i32 (i8*, ...) @printf(i8* getelementptr inbounds ([7 x i8], [7 x i8]* @.str, i64 0, i64 0), i8* %93, i8* %94)
  ret i32 0
}

declare dso_local i32 @gets(...) #1

; Function Attrs: nounwind readonly
declare dso_local i64 @strlen(i8*) #2

; Function Attrs: nounwind
declare dso_local i8* @strcpy(i8*, i8*) #3

declare dso_local i32 @printf(i8*, ...) #1


!llvm.module.flags = !{!0}
!llvm.ident = !{!1}

!0 = !{i32 1, !"wchar_size", i32 4}
!1 = !{!"clang version 10.0.0-4ubuntu1 "}
